target datalayout = "e-m:e-p270:32:32-p271:32:32-p272:64:64-i64:64-i128:128-f80:128-n8:16:32:64-S128"
target triple = "x86_64-pc-linux-gnu"

%"class.draco::StdioFileReader" = type { %"class.draco::FileReaderInterface", ptr }
%"class.draco::FileReaderInterface" = type { ptr }

@stderr = external global ptr, align 8
@.str.1 = private unnamed_addr constant [17 x i8] c"%s:%d (%s): %s.\0A\00", align 1
@.str.2 = private unnamed_addr constant [123 x i8] c"generated/home/dtcxzyw/WorkSpace/Projects/compilers/llvm-opt-benchmark/bench/draco/draco/src/draco/io/stdio_file_reader.cc\00", align 1
@__func__._ZN5draco15StdioFileReader11GetFileSizeEv = private unnamed_addr constant [12 x i8] c"GetFileSize\00", align 1
@.str.5 = private unnamed_addr constant [19 x i8] c"Seek to EoF failed\00", align 1

; Function Attrs: mustprogress uwtable
define noundef i64 @_ZN5draco15StdioFileReader11GetFileSizeEv(ptr noundef nonnull align 8 dereferenceable(16) %0) unnamed_addr #2 align 2 {
  %2 = alloca i64, align 8
  %3 = alloca ptr, align 8
  %4 = alloca i64, align 8
  store ptr %0, ptr %3, align 8
  %5 = load ptr, ptr %3, align 8
  %6 = getelementptr inbounds %"class.draco::StdioFileReader", ptr %5, i32 0, i32 1
  %7 = load ptr, ptr %6, align 8
  %8 = call i32 @fseek(ptr noundef %7, i64 noundef 0, i32 noundef 2)
  %9 = icmp ne i32 %8, 0
  br i1 %9, label %10, label %15

10:                                               ; preds = %1
  br label %11

11:                                               ; preds = %10
  %12 = load ptr, ptr @stderr, align 8
  %13 = call i32 (ptr, ptr, ...) @fprintf(ptr noundef %12, ptr noundef @.str.1, ptr noundef @.str.2, i32 noundef 86, ptr noundef @__func__._ZN5draco15StdioFileReader11GetFileSizeEv, ptr noundef @.str.5) #13
  br label %14

14:                                               ; preds = %11
  store i64 0, ptr %2, align 8
  br label %22

15:                                               ; preds = %1
  %16 = getelementptr inbounds %"class.draco::StdioFileReader", ptr %5, i32 0, i32 1
  %17 = load ptr, ptr %16, align 8
  %18 = call i64 @ftello64(ptr noundef %17)
  store i64 %18, ptr %4, align 8
  %19 = getelementptr inbounds %"class.draco::StdioFileReader", ptr %5, i32 0, i32 1
  %20 = load ptr, ptr %19, align 8
  call void @rewind(ptr noundef %20)
  %21 = load i64, ptr %4, align 8
  store i64 %21, ptr %2, align 8
  br label %22

22:                                               ; preds = %15, %14
  %23 = load i64, ptr %2, align 8
  ret i64 %23
}