; Function Attrs: mustprogress nofree nounwind uwtable
define noundef i64 @_ZN5draco15StdioFileReader11GetFileSizeEv(ptr nocapture noundef nonnull readonly align 8 dereferenceable(16) %0) unnamed_addr #2 align 2 {
  %2 = getelementptr inbounds i8, ptr %0, i64 8
  %3 = load ptr, ptr %2, align 8
  %4 = tail call i32 @fseek(ptr noundef %3, i64 noundef 0, i32 noundef 2)
  %.not = icmp eq i32 %4, 0
  br i1 %.not, label %8, label %5

5:                                                ; preds = %1
  %6 = load ptr, ptr @stderr, align 8
  %7 = tail call i32 (ptr, ptr, ...) @fprintf(ptr noundef %6, ptr noundef nonnull @.str.1, ptr noundef nonnull @.str.2, i32 noundef 86, ptr noundef nonnull @__func__._ZN5draco15StdioFileReader11GetFileSizeEv, ptr noundef nonnull @.str.5) #17
  br label %12

8:                                                ; preds = %1
  %9 = load ptr, ptr %2, align 8
  %10 = tail call i64 @ftello64(ptr noundef %9)
  %11 = load ptr, ptr %2, align 8
  tail call void @rewind(ptr noundef %11)
  br label %12

12:                                               ; preds = %8, %5
  %.0 = phi i64 [ 0, %5 ], [ %10, %8 ]
  ret i64 %.0
}